; Function Attrs: mustprogress nofree norecurse nosync nounwind willreturn memory(read, argmem: write, inaccessiblemem: none) uwtable
define hidden void @_glfwGetRequiredInstanceExtensionsX11(ptr noundef writeonly captures(none) %0) local_unnamed_addr #6 {
  %2 = load i32, ptr getelementptr inbounds nuw (i8, ptr @_glfw, i64 133840), align 8, !tbaa !436
  %.not = icmp eq i32 %2, 0
  br i1 %.not, label %13, label %3

3:                                                ; preds = %1
  %4 = load i32, ptr getelementptr inbounds nuw (i8, ptr @_glfw, i64 133860), align 4, !tbaa !437
  %5 = icmp ne i32 %4, 0
  %6 = load ptr, ptr getelementptr inbounds nuw (i8, ptr @_glfw, i64 142496), align 8
  %7 = icmp ne ptr %6, null
  %or.cond = select i1 %5, i1 %7, i1 false
  %8 = load i32, ptr getelementptr inbounds nuw (i8, ptr @_glfw, i64 133856), align 8
  %9 = icmp ne i32 %8, 0
  %or.cond5 = select i1 %or.cond, i1 true, i1 %9
  br i1 %or.cond5, label %.sink.split, label %13

.sink.split:                                      ; preds = %3
  store ptr @.str.21, ptr %0, align 8, !tbaa !410
  %10 = load ptr, ptr getelementptr inbounds nuw (i8, ptr @_glfw, i64 142496), align 8
  %11 = icmp ne ptr %10, null
  %or.cond3 = select i1 %5, i1 %11, i1 false
  %12 = getelementptr inbounds nuw i8, ptr %0, i64 8
  %.str.22..str.23 = select i1 %or.cond3, ptr @.str.22, ptr @.str.23
  store ptr %.str.22..str.23, ptr %12, align 8, !tbaa !410
  br label %13

13:                                               ; preds = %.sink.split, %3, %1
  ret void
}